target datalayout = "e-m:e-p270:32:32-p271:32:32-p272:64:64-i64:64-i128:128-f80:128-n8:16:32:64-S128"
target triple = "x86_64-pc-linux-gnu"

%struct.XML_Memory_Handling_Suite = type { ptr, ptr, ptr }
%struct.XML_ParserStruct = type { ptr, ptr, ptr, %struct.XML_Memory_Handling_Suite, ptr, ptr, ptr, i64, ptr, i64, i8, i32, ptr, ptr, ptr, ptr, ptr, ptr, ptr, ptr, ptr, ptr, ptr, ptr, ptr, ptr, ptr, ptr, ptr, ptr, ptr, ptr, ptr, ptr, ptr, ptr, ptr, ptr, %struct.INIT_ENCODING, ptr, ptr, i8, i8, ptr, ptr, ptr, ptr, %struct.prolog_state, ptr, i32, ptr, ptr, ptr, ptr, ptr, i8, i32, ptr, ptr, ptr, ptr, ptr, ptr, ptr, ptr, ptr, i8, i8, ptr, ptr, ptr, ptr, ptr, ptr, i32, i32, i32, ptr, ptr, i64, i8, %struct.position, %struct.STRING_POOL, %struct.STRING_POOL, ptr, i32, i8, ptr, %struct.XML_ParsingStatus, i8, i8, i32, i64, %struct.accounting, %struct.entity_stats }
%struct.INIT_ENCODING = type { %struct.encoding, ptr }
%struct.encoding = type { [4 x ptr], [2 x ptr], ptr, ptr, ptr, ptr, ptr, ptr, ptr, ptr, ptr, ptr, i32, i8, i8 }
%struct.prolog_state = type { ptr, i32, i32, i32, i32, i32 }
%struct.position = type { i64, i64 }
%struct.STRING_POOL = type { ptr, ptr, ptr, ptr, ptr, ptr }
%struct.XML_ParsingStatus = type { i32, i8 }
%struct.accounting = type { i64, i64, i64, float, i64 }
%struct.entity_stats = type { i32, i32, i32, i64 }

@stderr = external global ptr, align 8
@.str.313 = private unnamed_addr constant [77 x i8] c"expat: Accounting(%p): Direct %10llu, indirect %10llu, amplification %8.2f%s\00", align 1

; Function Attrs: nounwind uwtable
define internal float @accountingGetCurrentAmplification(ptr noundef %0) #0 {
  %2 = alloca ptr, align 8
  %3 = alloca i64, align 8
  %4 = alloca i64, align 8
  %5 = alloca float, align 4
  store ptr %0, ptr %2, align 8, !tbaa !12
  call void @llvm.lifetime.start.p0(i64 8, ptr %3) #11
  store i64 22, ptr %3, align 8, !tbaa !172
  call void @llvm.lifetime.start.p0(i64 8, ptr %4) #11
  %6 = load ptr, ptr %2, align 8, !tbaa !12
  %7 = getelementptr inbounds nuw %struct.XML_ParserStruct, ptr %6, i32 0, i32 93
  %8 = getelementptr inbounds nuw %struct.accounting, ptr %7, i32 0, i32 0
  %9 = load i64, ptr %8, align 8, !tbaa !238
  %10 = load ptr, ptr %2, align 8, !tbaa !12
  %11 = getelementptr inbounds nuw %struct.XML_ParserStruct, ptr %10, i32 0, i32 93
  %12 = getelementptr inbounds nuw %struct.accounting, ptr %11, i32 0, i32 1
  %13 = load i64, ptr %12, align 8, !tbaa !239
  %14 = add i64 %9, %13
  store i64 %14, ptr %4, align 8, !tbaa !237
  call void @llvm.lifetime.start.p0(i64 4, ptr %5) #11
  %15 = load ptr, ptr %2, align 8, !tbaa !12
  %16 = getelementptr inbounds nuw %struct.XML_ParserStruct, ptr %15, i32 0, i32 93
  %17 = getelementptr inbounds nuw %struct.accounting, ptr %16, i32 0, i32 0
  %18 = load i64, ptr %17, align 8, !tbaa !238
  %19 = icmp ne i64 %18, 0
  br i1 %19, label %20, label %29

20:                                               ; preds = %1
  %21 = load i64, ptr %4, align 8, !tbaa !237
  %22 = uitofp i64 %21 to float
  %23 = load ptr, ptr %2, align 8, !tbaa !12
  %24 = getelementptr inbounds nuw %struct.XML_ParserStruct, ptr %23, i32 0, i32 93
  %25 = getelementptr inbounds nuw %struct.accounting, ptr %24, i32 0, i32 0
  %26 = load i64, ptr %25, align 8, !tbaa !238
  %27 = uitofp i64 %26 to float
  %28 = fdiv float %22, %27
  br label %37

29:                                               ; preds = %1
  %30 = load ptr, ptr %2, align 8, !tbaa !12
  %31 = getelementptr inbounds nuw %struct.XML_ParserStruct, ptr %30, i32 0, i32 93
  %32 = getelementptr inbounds nuw %struct.accounting, ptr %31, i32 0, i32 1
  %33 = load i64, ptr %32, align 8, !tbaa !239
  %34 = add i64 22, %33
  %35 = uitofp i64 %34 to float
  %36 = fdiv float %35, 2.200000e+01
  br label %37

37:                                               ; preds = %29, %20
  %38 = phi float [ %28, %20 ], [ %36, %29 ]
  store float %38, ptr %5, align 4, !tbaa !236
  %39 = load float, ptr %5, align 4, !tbaa !236
  call void @llvm.lifetime.end.p0(i64 4, ptr %5) #11
  call void @llvm.lifetime.end.p0(i64 8, ptr %4) #11
  call void @llvm.lifetime.end.p0(i64 8, ptr %3) #11
  ret float %39
}

; Function Attrs: nounwind uwtable
define internal ptr @getRootParserOf(ptr noundef %0, ptr noundef %1) #0 {
  %3 = alloca ptr, align 8
  %4 = alloca ptr, align 8
  %5 = alloca ptr, align 8
  %6 = alloca i32, align 4
  store ptr %0, ptr %3, align 8, !tbaa !12
  store ptr %1, ptr %4, align 8, !tbaa !220
  call void @llvm.lifetime.start.p0(i64 8, ptr %5) #11
  %7 = load ptr, ptr %3, align 8, !tbaa !12
  store ptr %7, ptr %5, align 8, !tbaa !12
  call void @llvm.lifetime.start.p0(i64 4, ptr %6) #11
  store i32 0, ptr %6, align 4, !tbaa !174
  br label %8

8:                                                ; preds = %13, %2
  %9 = load ptr, ptr %5, align 8, !tbaa !12
  %10 = getelementptr inbounds nuw %struct.XML_ParserStruct, ptr %9, i32 0, i32 87
  %11 = load ptr, ptr %10, align 8, !tbaa !60
  %12 = icmp ne ptr %11, null
  br i1 %12, label %13, label %19

13:                                               ; preds = %8
  %14 = load ptr, ptr %5, align 8, !tbaa !12
  %15 = getelementptr inbounds nuw %struct.XML_ParserStruct, ptr %14, i32 0, i32 87
  %16 = load ptr, ptr %15, align 8, !tbaa !60
  store ptr %16, ptr %5, align 8, !tbaa !12
  %17 = load i32, ptr %6, align 4, !tbaa !174
  %18 = add i32 %17, 1
  store i32 %18, ptr %6, align 4, !tbaa !174
  br label %8, !llvm.loop !312

19:                                               ; preds = %8
  %20 = load ptr, ptr %4, align 8, !tbaa !220
  %21 = icmp ne ptr %20, null
  br i1 %21, label %22, label %25

22:                                               ; preds = %19
  %23 = load i32, ptr %6, align 4, !tbaa !174
  %24 = load ptr, ptr %4, align 8, !tbaa !220
  store i32 %23, ptr %24, align 4, !tbaa !174
  br label %25

25:                                               ; preds = %22, %19
  %26 = load ptr, ptr %5, align 8, !tbaa !12
  call void @llvm.lifetime.end.p0(i64 4, ptr %6) #11
  call void @llvm.lifetime.end.p0(i64 8, ptr %5) #11
  ret ptr %26
}

; Function Attrs: nounwind uwtable
define internal void @accountingReportStats(ptr noundef %0, ptr noundef %1) #0 {
  %3 = alloca ptr, align 8
  %4 = alloca ptr, align 8
  %5 = alloca ptr, align 8
  %6 = alloca i32, align 4
  %7 = alloca float, align 4
  store ptr %0, ptr %3, align 8, !tbaa !12
  store ptr %1, ptr %4, align 8, !tbaa !3
  call void @llvm.lifetime.start.p0(i64 8, ptr %5) #11
  %8 = load ptr, ptr %3, align 8, !tbaa !12
  %9 = call ptr @getRootParserOf(ptr noundef %8, ptr noundef null)
  store ptr %9, ptr %5, align 8, !tbaa !12
  %10 = load ptr, ptr %5, align 8, !tbaa !12
  %11 = getelementptr inbounds nuw %struct.XML_ParserStruct, ptr %10, i32 0, i32 93
  %12 = getelementptr inbounds nuw %struct.accounting, ptr %11, i32 0, i32 2
  %13 = load i64, ptr %12, align 8, !tbaa !148
  %14 = icmp eq i64 %13, 0
  br i1 %14, label %15, label %16

15:                                               ; preds = %2
  store i32 1, ptr %6, align 4
  br label %33

16:                                               ; preds = %2
  call void @llvm.lifetime.start.p0(i64 4, ptr %7) #11
  %17 = load ptr, ptr %5, align 8, !tbaa !12
  %18 = call float @accountingGetCurrentAmplification(ptr noundef %17)
  store float %18, ptr %7, align 4, !tbaa !236
  %19 = load ptr, ptr @stderr, align 8, !tbaa !313
  %20 = load ptr, ptr %5, align 8, !tbaa !12
  %21 = load ptr, ptr %5, align 8, !tbaa !12
  %22 = getelementptr inbounds nuw %struct.XML_ParserStruct, ptr %21, i32 0, i32 93
  %23 = getelementptr inbounds nuw %struct.accounting, ptr %22, i32 0, i32 0
  %24 = load i64, ptr %23, align 8, !tbaa !238
  %25 = load ptr, ptr %5, align 8, !tbaa !12
  %26 = getelementptr inbounds nuw %struct.XML_ParserStruct, ptr %25, i32 0, i32 93
  %27 = getelementptr inbounds nuw %struct.accounting, ptr %26, i32 0, i32 1
  %28 = load i64, ptr %27, align 8, !tbaa !239
  %29 = load float, ptr %7, align 4, !tbaa !236
  %30 = fpext float %29 to double
  %31 = load ptr, ptr %4, align 8, !tbaa !3
  %32 = call i32 (ptr, ptr, ...) @fprintf(ptr noundef %19, ptr noundef @.str.313, ptr noundef %20, i64 noundef %24, i64 noundef %28, double noundef %30, ptr noundef %31) #11
  call void @llvm.lifetime.end.p0(i64 4, ptr %7) #11
  store i32 0, ptr %6, align 4
  br label %33

33:                                               ; preds = %16, %15
  call void @llvm.lifetime.end.p0(i64 8, ptr %5) #11
  %34 = load i32, ptr %6, align 4
  switch i32 %34, label %36 [
    i32 0, label %35
    i32 1, label %35
  ]

35:                                               ; preds = %33, %33
  ret void

36:                                               ; preds = %33
  unreachable
}