; Function Attrs: nofree nounwind uwtable
define internal fastcc void @accountingReportStats(ptr noundef %0, ptr noundef %1) unnamed_addr #13 {
  br label %3

3:                                                ; preds = %3, %2
  %.07.i = phi ptr [ %0, %2 ], [ %5, %3 ]
  %4 = getelementptr inbounds nuw i8, ptr %.07.i, i64 912
  %5 = load ptr, ptr %4, align 8, !tbaa !66
  %.not.i = icmp eq ptr %5, null
  br i1 %.not.i, label %getRootParserOf.exit, label %3, !llvm.loop !226

getRootParserOf.exit:                             ; preds = %3
  %6 = getelementptr inbounds nuw i8, ptr %.07.i, i64 960
  %7 = load i64, ptr %6, align 8, !tbaa !118
  %8 = icmp eq i64 %7, 0
  br i1 %8, label %25, label %9

9:                                                ; preds = %getRootParserOf.exit
  %10 = getelementptr i8, ptr %.07.i, i64 944
  %.val = load i64, ptr %10, align 8, !tbaa !216
  %11 = getelementptr i8, ptr %.07.i, i64 952
  %.val8 = load i64, ptr %11, align 8, !tbaa !217
  %.not.i9 = icmp eq i64 %.val, 0
  br i1 %.not.i9, label %17, label %12

12:                                               ; preds = %9
  %13 = add i64 %.val8, %.val
  %14 = uitofp i64 %13 to float
  %15 = uitofp i64 %.val to float
  %16 = fdiv float %14, %15
  br label %accountingGetCurrentAmplification.exit

17:                                               ; preds = %9
  %18 = add i64 %.val8, 22
  %19 = uitofp i64 %18 to float
  %20 = fdiv float %19, 2.200000e+01
  br label %accountingGetCurrentAmplification.exit

accountingGetCurrentAmplification.exit:           ; preds = %12, %17
  %21 = phi float [ %16, %12 ], [ %20, %17 ]
  %22 = load ptr, ptr @stderr, align 8, !tbaa !194
  %23 = fpext float %21 to double
  %24 = tail call i32 (ptr, ptr, ...) @fprintf(ptr noundef %22, ptr noundef nonnull @.str.313, ptr noundef nonnull %.07.i, i64 noundef %.val, i64 noundef %.val8, double noundef %23, ptr noundef %1) #28
  br label %25

25:                                               ; preds = %getRootParserOf.exit, %accountingGetCurrentAmplification.exit
  ret void
}